target datalayout = "e-m:e-p270:32:32-p271:32:32-p272:64:64-i64:64-i128:128-f80:128-n8:16:32:64-S128"
target triple = "x86_64-pc-linux-gnu"

%struct.avifCodecDecodeInput = type { %struct.avifDecodeSampleArray, i32, i32 }
%struct.avifDecodeSampleArray = type { ptr, i32, i32, i32 }
%struct.avifDecodeSample = type { %struct.avifROData, i32, i32, i32, i64, i64, i8, i32 }
%struct.avifROData = type { ptr, i64 }
%struct.avifDecoder = type { i32, i32, i32, i32, i32, i32, i32, i32, i32, i32, i32, ptr, i32, i32, i32, %struct.avifImageTiming, i64, double, i64, i32, i32, %struct.avifIOStats, %struct.avifDiagnostics, ptr, ptr, i32 }
%struct.avifImageTiming = type { i64, double, i64, double, i64 }
%struct.avifIOStats = type { i64, i64 }
%struct.avifDiagnostics = type { [256 x i8] }
%struct.avifDecoderData = type { ptr, %struct.avifTrackArray, %struct.avifTileArray, [2 x %struct.avifTileInfo], i32, ptr, ptr, [4 x i8], ptr, ptr, i32 }
%struct.avifTrackArray = type { ptr, i32, i32, i32 }
%struct.avifTileArray = type { ptr, i32, i32, i32 }
%struct.avifTileInfo = type { i32, i32, i32, %struct.avifImageGrid }
%struct.avifImageGrid = type { i32, i32, i32, i32 }
%struct.avifTile = type { ptr, i32, ptr, ptr, i32, i32, i8 }

; Function Attrs: nounwind uwtable
define hidden i32 @avifDecoderIsKeyframe(ptr noundef %0, i32 noundef %1) #0 {
  %3 = alloca i32, align 4
  %4 = alloca ptr, align 8
  %5 = alloca i32, align 4
  %6 = alloca i32, align 4
  %7 = alloca ptr, align 8
  store ptr %0, ptr %4, align 8
  store i32 %1, ptr %5, align 4
  %8 = load ptr, ptr %4, align 8
  %9 = getelementptr inbounds nuw %struct.avifDecoder, ptr %8, i32 0, i32 24
  %10 = load ptr, ptr %9, align 8
  %11 = icmp ne ptr %10, null
  br i1 %11, label %12, label %20

12:                                               ; preds = %2
  %13 = load ptr, ptr %4, align 8
  %14 = getelementptr inbounds nuw %struct.avifDecoder, ptr %13, i32 0, i32 24
  %15 = load ptr, ptr %14, align 8
  %16 = getelementptr inbounds nuw %struct.avifDecoderData, ptr %15, i32 0, i32 2
  %17 = getelementptr inbounds nuw %struct.avifTileArray, ptr %16, i32 0, i32 2
  %18 = load i32, ptr %17, align 4
  %19 = icmp eq i32 %18, 0
  br i1 %19, label %20, label %21

20:                                               ; preds = %12, %2
  store i32 0, ptr %3, align 4
  br label %68

21:                                               ; preds = %12
  store i32 0, ptr %6, align 4
  br label %22

22:                                               ; preds = %64, %21
  %23 = load i32, ptr %6, align 4
  %24 = load ptr, ptr %4, align 8
  %25 = getelementptr inbounds nuw %struct.avifDecoder, ptr %24, i32 0, i32 24
  %26 = load ptr, ptr %25, align 8
  %27 = getelementptr inbounds nuw %struct.avifDecoderData, ptr %26, i32 0, i32 2
  %28 = getelementptr inbounds nuw %struct.avifTileArray, ptr %27, i32 0, i32 2
  %29 = load i32, ptr %28, align 4
  %30 = icmp ult i32 %23, %29
  br i1 %30, label %31, label %67

31:                                               ; preds = %22
  %32 = load ptr, ptr %4, align 8
  %33 = getelementptr inbounds nuw %struct.avifDecoder, ptr %32, i32 0, i32 24
  %34 = load ptr, ptr %33, align 8
  %35 = getelementptr inbounds nuw %struct.avifDecoderData, ptr %34, i32 0, i32 2
  %36 = getelementptr inbounds nuw %struct.avifTileArray, ptr %35, i32 0, i32 0
  %37 = load ptr, ptr %36, align 8
  %38 = load i32, ptr %6, align 4
  %39 = zext i32 %38 to i64
  %40 = getelementptr inbounds %struct.avifTile, ptr %37, i64 %39
  store ptr %40, ptr %7, align 8
  %41 = load i32, ptr %5, align 4
  %42 = load ptr, ptr %7, align 8
  %43 = getelementptr inbounds nuw %struct.avifTile, ptr %42, i32 0, i32 0
  %44 = load ptr, ptr %43, align 8
  %45 = getelementptr inbounds nuw %struct.avifCodecDecodeInput, ptr %44, i32 0, i32 0
  %46 = getelementptr inbounds nuw %struct.avifDecodeSampleArray, ptr %45, i32 0, i32 2
  %47 = load i32, ptr %46, align 4
  %48 = icmp uge i32 %41, %47
  br i1 %48, label %62, label %49

49:                                               ; preds = %31
  %50 = load ptr, ptr %7, align 8
  %51 = getelementptr inbounds nuw %struct.avifTile, ptr %50, i32 0, i32 0
  %52 = load ptr, ptr %51, align 8
  %53 = getelementptr inbounds nuw %struct.avifCodecDecodeInput, ptr %52, i32 0, i32 0
  %54 = getelementptr inbounds nuw %struct.avifDecodeSampleArray, ptr %53, i32 0, i32 0
  %55 = load ptr, ptr %54, align 8
  %56 = load i32, ptr %5, align 4
  %57 = zext i32 %56 to i64
  %58 = getelementptr inbounds %struct.avifDecodeSample, ptr %55, i64 %57
  %59 = getelementptr inbounds nuw %struct.avifDecodeSample, ptr %58, i32 0, i32 7
  %60 = load i32, ptr %59, align 4
  %61 = icmp ne i32 %60, 0
  br i1 %61, label %63, label %62

62:                                               ; preds = %49, %31
  store i32 0, ptr %3, align 4
  br label %68

63:                                               ; preds = %49
  br label %64

64:                                               ; preds = %63
  %65 = load i32, ptr %6, align 4
  %66 = add i32 %65, 1
  store i32 %66, ptr %6, align 4
  br label %22, !llvm.loop !53

67:                                               ; preds = %22
  store i32 1, ptr %3, align 4
  br label %68

68:                                               ; preds = %67, %62, %20
  %69 = load i32, ptr %3, align 4
  ret i32 %69
}

; Function Attrs: nounwind uwtable
define hidden i32 @avifDecoderNearestKeyframe(ptr noundef %0, i32 noundef %1) #0 {
  %3 = alloca i32, align 4
  %4 = alloca ptr, align 8
  %5 = alloca i32, align 4
  store ptr %0, ptr %4, align 8
  store i32 %1, ptr %5, align 4
  %6 = load ptr, ptr %4, align 8
  %7 = getelementptr inbounds nuw %struct.avifDecoder, ptr %6, i32 0, i32 24
  %8 = load ptr, ptr %7, align 8
  %9 = icmp ne ptr %8, null
  br i1 %9, label %11, label %10

10:                                               ; preds = %2
  store i32 0, ptr %3, align 4
  br label %27

11:                                               ; preds = %2
  br label %12

12:                                               ; preds = %22, %11
  %13 = load i32, ptr %5, align 4
  %14 = icmp ne i32 %13, 0
  br i1 %14, label %15, label %25

15:                                               ; preds = %12
  %16 = load ptr, ptr %4, align 8
  %17 = load i32, ptr %5, align 4
  %18 = call i32 @avifDecoderIsKeyframe(ptr noundef %16, i32 noundef %17)
  %19 = icmp ne i32 %18, 0
  br i1 %19, label %20, label %21

20:                                               ; preds = %15
  br label %25

21:                                               ; preds = %15
  br label %22

22:                                               ; preds = %21
  %23 = load i32, ptr %5, align 4
  %24 = add i32 %23, -1
  store i32 %24, ptr %5, align 4
  br label %12, !llvm.loop !18

25:                                               ; preds = %20, %12
  %26 = load i32, ptr %5, align 4
  store i32 %26, ptr %3, align 4
  br label %27

27:                                               ; preds = %25, %10
  %28 = load i32, ptr %3, align 4
  ret i32 %28
}