; Function Attrs: nofree norecurse nosync nounwind memory(read, inaccessiblemem: none) uwtable
define hidden range(i32 0, -1) i32 @avifDecoderNearestKeyframe(ptr noundef readonly captures(none) %0, i32 noundef %1) local_unnamed_addr #4 {
  %3 = getelementptr inbounds nuw i8, ptr %0, i64 424
  %4 = load ptr, ptr %3, align 8
  %.not = icmp eq ptr %4, null
  %.not713 = icmp eq i32 %1, 0
  %or.cond = or i1 %.not, %.not713
  br i1 %or.cond, label %avifDecoderIsKeyframe.exit, label %.lr.ph

.lr.ph:                                           ; preds = %2
  %5 = getelementptr inbounds nuw i8, ptr %4, i64 44
  %6 = load i32, ptr %5, align 4
  %7 = icmp eq i32 %6, 0
  %wide.trip.count.i = zext i32 %6 to i64
  br i1 %7, label %avifDecoderIsKeyframe.exit, label %.lr.ph.split

.lr.ph.split:                                     ; preds = %.lr.ph
  %8 = getelementptr inbounds nuw i8, ptr %4, i64 32
  %9 = load ptr, ptr %8, align 8
  %10 = zext i32 %1 to i64
  br label %.preheader.i

.preheader.i:                                     ; preds = %.lr.ph.split, %.loopexit
  %indvars.iv = phi i64 [ %10, %.lr.ph.split ], [ %indvars.iv.next, %.loopexit ]
  br label %12

11:                                               ; preds = %18
  %indvars.iv.next.i = add nuw nsw i64 %indvars.iv.i, 1
  %exitcond.not.i = icmp eq i64 %indvars.iv.next.i, %wide.trip.count.i
  br i1 %exitcond.not.i, label %avifDecoderIsKeyframe.exit.loopexit16, label %12, !llvm.loop !26

12:                                               ; preds = %11, %.preheader.i
  %indvars.iv.i = phi i64 [ 0, %.preheader.i ], [ %indvars.iv.next.i, %11 ]
  %13 = getelementptr inbounds nuw %struct.avifTile, ptr %9, i64 %indvars.iv.i
  %14 = load ptr, ptr %13, align 8
  %15 = getelementptr inbounds nuw i8, ptr %14, i64 12
  %16 = load i32, ptr %15, align 4
  %17 = zext i32 %16 to i64
  %.not14.i = icmp ult i64 %indvars.iv, %17
  br i1 %.not14.i, label %18, label %.loopexit

18:                                               ; preds = %12
  %19 = load ptr, ptr %14, align 8
  %20 = getelementptr inbounds nuw %struct.avifDecodeSample, ptr %19, i64 %indvars.iv, i32 7
  %21 = load i32, ptr %20, align 4
  %.not15.i = icmp eq i32 %21, 0
  br i1 %.not15.i, label %.loopexit, label %11

.loopexit:                                        ; preds = %18, %12
  %indvars.iv.next = add nsw i64 %indvars.iv, -1
  %22 = and i64 %indvars.iv.next, 4294967295
  %.not7 = icmp eq i64 %22, 0
  br i1 %.not7, label %avifDecoderIsKeyframe.exit, label %.preheader.i, !llvm.loop !27

avifDecoderIsKeyframe.exit.loopexit16:            ; preds = %11
  %23 = trunc nuw i64 %indvars.iv to i32
  br label %avifDecoderIsKeyframe.exit

avifDecoderIsKeyframe.exit:                       ; preds = %.loopexit, %.lr.ph, %avifDecoderIsKeyframe.exit.loopexit16, %2
  %.06 = phi i32 [ 0, %2 ], [ %23, %avifDecoderIsKeyframe.exit.loopexit16 ], [ 0, %.lr.ph ], [ 0, %.loopexit ]
  ret i32 %.06
}